; Function Attrs: nounwind sspstrong uwtable
define internal void @ahci_start_dma(ptr noundef readonly captures(none) %dma, ptr noundef initializes((800, 808)) %s, ptr noundef readonly captures(none) %dma_cb) #0 {
entry:
  %_now.i.i = alloca %struct.timeval, align 8
  %hba = getelementptr inbounds nuw i8, ptr %dma, i64 2440
  %0 = load ptr, ptr %hba, align 8
  %port_no = getelementptr inbounds nuw i8, ptr %dma, i64 2360
  %1 = load i32, ptr %port_no, align 8
  call void @llvm.lifetime.start.p0(i64 16, ptr nonnull %_now.i.i)
  %2 = load i32, ptr @trace_events_enabled_count, align 4
  %tobool.i.i = icmp ne i32 %2, 0
  %3 = load i16, ptr @_TRACE_AHCI_START_DMA_DSTATE, align 2
  %tobool4.i.i = icmp ne i16 %3, 0
  %or.cond.i.i = select i1 %tobool.i.i, i1 %tobool4.i.i, i1 false
  br i1 %or.cond.i.i, label %land.lhs.true5.i.i, label %trace_ahci_start_dma.exit

land.lhs.true5.i.i:                               ; preds = %entry
  %4 = load i32, ptr @qemu_loglevel, align 4
  %and.i.i.i = and i32 %4, 32768
  %cmp.i.not.i.i = icmp eq i32 %and.i.i.i, 0
  br i1 %cmp.i.not.i.i, label %trace_ahci_start_dma.exit, label %if.then.i.i

if.then.i.i:                                      ; preds = %land.lhs.true5.i.i
  %5 = load i8, ptr @message_with_timestamp, align 1
  %tobool7.i.i = trunc i8 %5 to i1
  br i1 %tobool7.i.i, label %if.then8.i.i, label %if.else.i.i

if.then8.i.i:                                     ; preds = %if.then.i.i
  %call9.i.i = call i32 @gettimeofday(ptr noundef nonnull %_now.i.i, ptr noundef null) #12
  %call10.i.i = tail call i32 @qemu_get_thread_id() #12
  %6 = load i64, ptr %_now.i.i, align 8
  %tv_usec.i.i = getelementptr inbounds nuw i8, ptr %_now.i.i, i64 8
  %7 = load i64, ptr %tv_usec.i.i, align 8
  tail call void (ptr, ...) @qemu_log(ptr noundef nonnull @.str.170, i32 noundef %call10.i.i, i64 noundef %6, i64 noundef %7, ptr noundef %0, i32 noundef %1) #12
  br label %trace_ahci_start_dma.exit

if.else.i.i:                                      ; preds = %if.then.i.i
  tail call void (ptr, ...) @qemu_log(ptr noundef nonnull @.str.171, ptr noundef %0, i32 noundef %1) #12
  br label %trace_ahci_start_dma.exit

trace_ahci_start_dma.exit:                        ; preds = %entry, %land.lhs.true5.i.i, %if.then8.i.i, %if.else.i.i
  call void @llvm.lifetime.end.p0(i64 16, ptr nonnull %_now.i.i)
  %io_buffer_offset = getelementptr inbounds nuw i8, ptr %s, i64 800
  store i64 0, ptr %io_buffer_offset, align 8
  tail call void %dma_cb(ptr noundef %s, i32 noundef 0) #12
  ret void
}